; Function Attrs: cold nounwind optsize uwtable
define internal range(i32 -1094995529, 1) i32 @decode_init(ptr noundef %0) #0 {
  %2 = getelementptr inbounds nuw i8, ptr %0, i64 32
  %3 = load ptr, ptr %2, align 8, !tbaa !4
  store ptr %0, ptr %3, align 8, !tbaa !27
  %4 = getelementptr inbounds nuw i8, ptr %0, i64 112
  %5 = load i32, ptr %4, align 8, !tbaa !32
  %6 = getelementptr inbounds nuw i8, ptr %3, i64 796
  store i32 %5, ptr %6, align 4, !tbaa !33
  %7 = getelementptr inbounds nuw i8, ptr %0, i64 116
  %8 = load i32, ptr %7, align 4, !tbaa !34
  %9 = getelementptr inbounds nuw i8, ptr %3, i64 800
  store i32 %8, ptr %9, align 8, !tbaa !35
  %10 = getelementptr inbounds nuw i8, ptr %0, i64 648
  %11 = load i32, ptr %10, align 8, !tbaa !36
  %12 = getelementptr inbounds nuw i8, ptr %3, i64 16
  store i32 %11, ptr %12, align 8, !tbaa !37
  %13 = add i32 %11, -8
  %14 = tail call i32 @llvm.fshl.i32(i32 %13, i32 %13, i32 29)
  switch i32 %14, label %18 [
    i32 0, label %19
    i32 1, label %15
    i32 2, label %16
    i32 3, label %17
  ]

15:                                               ; preds = %1
  br label %19

16:                                               ; preds = %1
  store i32 32, ptr %12, align 8, !tbaa !37
  br label %19

17:                                               ; preds = %1
  br label %19

18:                                               ; preds = %1
  tail call void (ptr, i32, ptr, ...) @av_log(ptr noundef nonnull %0, i32 noundef 16, ptr noundef nonnull @.str.2, i32 noundef %11) #7
  br label %26

19:                                               ; preds = %16, %1, %17, %15
  %.sink = phi i32 [ 39, %15 ], [ 11, %1 ], [ 121, %16 ], [ 121, %17 ]
  %20 = phi i32 [ %11, %15 ], [ %11, %1 ], [ 32, %16 ], [ %11, %17 ]
  %21 = getelementptr inbounds nuw i8, ptr %0, i64 136
  store i32 %.sink, ptr %21, align 8, !tbaa !38
  %22 = sdiv i32 %20, 8
  %23 = getelementptr inbounds nuw i8, ptr %3, i64 20
  store i32 %22, ptr %23, align 4, !tbaa !39
  %24 = tail call ptr @av_frame_alloc() #7
  %25 = getelementptr inbounds nuw i8, ptr %3, i64 8
  store ptr %24, ptr %25, align 8, !tbaa !40
  %.not = icmp eq ptr %24, null
  %. = select i1 %.not, i32 -12, i32 0
  br label %26

26:                                               ; preds = %19, %18
  %.0 = phi i32 [ -1094995529, %18 ], [ %., %19 ]
  ret i32 %.0
}